; Function Attrs: nofree norecurse nosync nounwind memory(read, inaccessiblemem: none) uwtable
define i32 @Saig_ManBmcTerSimCount01(ptr noundef readonly captures(none) %0, ptr noundef readonly %1) local_unnamed_addr #5 {
  %3 = icmp eq ptr %1, null
  %4 = getelementptr i8, ptr %0, i64 104
  %.val = load i32, ptr %4, align 8, !tbaa !3
  br i1 %3, label %.critedge, label %.preheader

.preheader:                                       ; preds = %2
  %5 = icmp sgt i32 %.val, 0
  br i1 %5, label %.lr.ph, label %.critedge

.lr.ph:                                           ; preds = %.preheader
  %6 = getelementptr inbounds nuw i8, ptr %0, i64 24
  %7 = load ptr, ptr %6, align 8, !tbaa !21
  %8 = getelementptr i8, ptr %0, i64 112
  %.val17 = load i32, ptr %8, align 8, !tbaa !22
  %9 = getelementptr i8, ptr %7, i64 8
  %.val18 = load ptr, ptr %9, align 8, !tbaa !23
  %10 = sext i32 %.val17 to i64
  %wide.trip.count = zext nneg i32 %.val to i64
  %invariant.gep = getelementptr ptr, ptr %.val18, i64 %10
  br label %11

11:                                               ; preds = %.lr.ph, %32
  %indvars.iv = phi i64 [ 0, %.lr.ph ], [ %indvars.iv.next, %32 ]
  %.023 = phi i32 [ 0, %.lr.ph ], [ %.1, %32 ]
  %gep = getelementptr ptr, ptr %invariant.gep, i64 %indvars.iv
  %12 = load ptr, ptr %gep, align 8, !tbaa !25
  %13 = getelementptr i8, ptr %12, i64 8
  %.val19 = load ptr, ptr %13, align 8, !tbaa !26
  %14 = ptrtoint ptr %.val19 to i64
  %15 = and i64 %14, -2
  %16 = inttoptr i64 %15 to ptr
  %17 = getelementptr i8, ptr %16, i64 24
  %.val20 = load i64, ptr %17, align 8
  %18 = and i64 %.val20, 7
  %.not = icmp eq i64 %18, 1
  br i1 %.not, label %32, label %19

19:                                               ; preds = %11
  %20 = getelementptr i8, ptr %12, i64 36
  %.val21 = load i32, ptr %20, align 4, !tbaa !27
  %21 = ashr i32 %.val21, 4
  %22 = sext i32 %21 to i64
  %23 = getelementptr inbounds i32, ptr %1, i64 %22
  %24 = load i32, ptr %23, align 4, !tbaa !28
  %25 = shl i32 %.val21, 1
  %26 = and i32 %25, 30
  %27 = lshr i32 %24, %26
  %28 = and i32 %27, 3
  %29 = icmp ne i32 %28, 3
  %30 = zext i1 %29 to i32
  %31 = add nsw i32 %.023, %30
  br label %32

32:                                               ; preds = %11, %19
  %.1 = phi i32 [ %.023, %11 ], [ %31, %19 ]
  %indvars.iv.next = add nuw nsw i64 %indvars.iv, 1
  %exitcond.not = icmp eq i64 %indvars.iv.next, %wide.trip.count
  br i1 %exitcond.not, label %.critedge, label %11, !llvm.loop !29

.critedge:                                        ; preds = %32, %2, %.preheader
  %.014 = phi i32 [ 0, %.preheader ], [ %.val, %2 ], [ %.1, %32 ]
  ret i32 %.014
}